; Function Attrs: mustprogress nofree norecurse nosync nounwind willreturn memory(read, argmem: readwrite, inaccessiblemem: none) uwtable
define void @_ZN6icu_779SpoofData8initPtrsER10UErrorCode(ptr noundef nonnull align 8 captures(none) dereferenceable(56) initializes((32, 56)) %0, ptr noundef nonnull readonly align 4 captures(none) dereferenceable(4) %1) local_unnamed_addr #9 align 2 {
  %3 = getelementptr inbounds nuw i8, ptr %0, i64 32
  %4 = getelementptr inbounds nuw i8, ptr %0, i64 40
  %5 = getelementptr inbounds nuw i8, ptr %0, i64 48
  tail call void @llvm.memset.p0.i64(ptr noundef nonnull align 8 dereferenceable(24) %3, i8 0, i64 24, i1 false)
  %6 = load i32, ptr %1, align 4, !tbaa !19
  %7 = icmp slt i32 %6, 1
  br i1 %7, label %8, label %27

8:                                                ; preds = %2
  %9 = load ptr, ptr %0, align 8, !tbaa !29
  %10 = getelementptr inbounds nuw i8, ptr %9, i64 12
  %11 = load i32, ptr %10, align 4, !tbaa !76
  %.not4 = icmp eq i32 %11, 0
  br i1 %.not4, label %15, label %12

12:                                               ; preds = %8
  %13 = sext i32 %11 to i64
  %14 = getelementptr inbounds i8, ptr %9, i64 %13
  store ptr %14, ptr %3, align 8, !tbaa !52
  br label %15

15:                                               ; preds = %12, %8
  %16 = getelementptr inbounds nuw i8, ptr %9, i64 20
  %17 = load i32, ptr %16, align 4, !tbaa !77
  %.not5 = icmp eq i32 %17, 0
  br i1 %.not5, label %21, label %18

18:                                               ; preds = %15
  %19 = sext i32 %17 to i64
  %20 = getelementptr inbounds i8, ptr %9, i64 %19
  store ptr %20, ptr %4, align 8, !tbaa !55
  br label %21

21:                                               ; preds = %18, %15
  %22 = getelementptr inbounds nuw i8, ptr %9, i64 28
  %23 = load i32, ptr %22, align 4, !tbaa !78
  %.not6 = icmp eq i32 %23, 0
  br i1 %.not6, label %27, label %24

24:                                               ; preds = %21
  %25 = sext i32 %23 to i64
  %26 = getelementptr inbounds i8, ptr %9, i64 %25
  store ptr %26, ptr %5, align 8, !tbaa !58
  br label %27

27:                                               ; preds = %2, %24, %21
  ret void
}